; Function Attrs: nounwind uwtable
define noundef i32 @ossl_quic_tserver_tick(ptr noundef captures(none) %0) local_unnamed_addr #0 {
  %2 = getelementptr inbounds nuw i8, ptr %0, i64 96
  %3 = load ptr, ptr %2, align 8, !tbaa !46
  %4 = tail call ptr @ossl_quic_channel_get_reactor(ptr noundef %3) #6
  %5 = tail call i32 @ossl_quic_reactor_tick(ptr noundef %4, i32 noundef 0) #6
  %6 = load ptr, ptr %2, align 8, !tbaa !46
  %7 = tail call i32 @ossl_quic_channel_is_active(ptr noundef %6) #6
  %.not = icmp eq i32 %7, 0
  br i1 %.not, label %12, label %8

8:                                                ; preds = %1
  %9 = getelementptr inbounds nuw i8, ptr %0, i64 128
  %10 = load i8, ptr %9, align 8
  %11 = or i8 %10, 1
  store i8 %11, ptr %9, align 8
  br label %12

12:                                               ; preds = %8, %1
  ret i32 1
}